; Function Attrs: mustprogress uwtable
define void @_ZN7testing8internal25UntypedFunctionMockerBase15SetOwnerAndNameEPKvPKc(ptr nocapture noundef nonnull writeonly align 8 dereferenceable(72) %this, ptr noundef %mock_obj, ptr noundef %name) local_unnamed_addr #3 align 2 personality ptr @__gxx_personality_v0 {
entry:
  tail call void @_ZN7testing8internal9MutexBase4LockEv(ptr noundef nonnull align 8 dereferenceable(56) @_ZN7testing8internal13g_gmock_mutexE)
  %mock_obj_ = getelementptr inbounds i8, ptr %this, i64 8
  store ptr %mock_obj, ptr %mock_obj_, align 8
  %name_ = getelementptr inbounds i8, ptr %this, i64 16
  store ptr %name, ptr %name_, align 8
  invoke void @_ZN7testing8internal9MutexBase6UnlockEv(ptr noundef nonnull align 8 dereferenceable(56) @_ZN7testing8internal13g_gmock_mutexE)
          to label %_ZN7testing8internal14GTestMutexLockD2Ev.exit unwind label %terminate.lpad.i

terminate.lpad.i:                                 ; preds = %entry
  %0 = landingpad { ptr, i32 }
          catch ptr null
  %1 = extractvalue { ptr, i32 } %0, 0
  tail call void @__clang_call_terminate(ptr %1) #30
  unreachable

_ZN7testing8internal14GTestMutexLockD2Ev.exit:    ; preds = %entry
  ret void
}